; Function Attrs: nounwind sspstrong uwtable
define internal range(i64 0, 21) i64 @recursive_eql(i64 noundef %0, i64 noundef %1, i32 noundef %2) #0 {
  %.not = icmp eq i32 %2, 0
  br i1 %.not, label %4, label %.loopexit

4:                                                ; preds = %3
  %5 = inttoptr i64 %0 to ptr
  %6 = load i64, ptr %5, align 8, !tbaa !11
  %7 = and i64 %6, 1040384
  %.not.i = icmp eq i64 %7, 0
  br i1 %.not.i, label %11, label %8

8:                                                ; preds = %4
  %9 = lshr i64 %6, 13
  %10 = and i64 %9, 127
  br label %internal_RSTRUCT_LEN.exit

11:                                               ; preds = %4
  %12 = getelementptr inbounds nuw i8, ptr %5, i64 16
  %13 = load i64, ptr %12, align 8, !tbaa !13
  br label %internal_RSTRUCT_LEN.exit

internal_RSTRUCT_LEN.exit:                        ; preds = %8, %11
  %.0.i = phi i64 [ %10, %8 ], [ %13, %11 ]
  %14 = icmp sgt i64 %.0.i, 0
  br i1 %14, label %.lr.ph, label %.loopexit

.lr.ph:                                           ; preds = %internal_RSTRUCT_LEN.exit
  %15 = getelementptr inbounds nuw i8, ptr %5, i64 16
  %16 = getelementptr inbounds nuw i8, ptr %5, i64 24
  %17 = inttoptr i64 %1 to ptr
  %18 = getelementptr inbounds nuw i8, ptr %17, i64 16
  %19 = getelementptr inbounds nuw i8, ptr %17, i64 24
  br label %22

20:                                               ; preds = %internal_RSTRUCT_GET.exit14
  %21 = add nuw nsw i64 %.01015, 1
  %exitcond.not = icmp eq i64 %21, %.0.i
  br i1 %exitcond.not, label %.loopexit, label %22, !llvm.loop !62

22:                                               ; preds = %.lr.ph, %20
  %.01015 = phi i64 [ 0, %.lr.ph ], [ %21, %20 ]
  %23 = load i64, ptr %5, align 8, !tbaa !11
  %24 = and i64 %23, 1040384
  %.not.i.i = icmp eq i64 %24, 0
  br i1 %.not.i.i, label %25, label %internal_RSTRUCT_GET.exit

25:                                               ; preds = %22
  %26 = load ptr, ptr %16, align 8, !tbaa !13
  br label %internal_RSTRUCT_GET.exit

internal_RSTRUCT_GET.exit:                        ; preds = %22, %25
  %.0.i.i = phi ptr [ %26, %25 ], [ %15, %22 ]
  %27 = getelementptr i64, ptr %.0.i.i, i64 %.01015
  %28 = load i64, ptr %27, align 8, !tbaa !7
  %29 = load i64, ptr %17, align 8, !tbaa !11
  %30 = and i64 %29, 1040384
  %.not.i.i12 = icmp eq i64 %30, 0
  br i1 %.not.i.i12, label %31, label %internal_RSTRUCT_GET.exit14

31:                                               ; preds = %internal_RSTRUCT_GET.exit
  %32 = load ptr, ptr %19, align 8, !tbaa !13
  br label %internal_RSTRUCT_GET.exit14

internal_RSTRUCT_GET.exit14:                      ; preds = %internal_RSTRUCT_GET.exit, %31
  %.0.i.i13 = phi ptr [ %32, %31 ], [ %18, %internal_RSTRUCT_GET.exit ]
  %33 = getelementptr i64, ptr %.0.i.i13, i64 %.01015
  %34 = load i64, ptr %33, align 8, !tbaa !7
  %35 = tail call i32 @rb_eql(i64 noundef %28, i64 noundef %34) #19
  %.not11 = icmp eq i32 %35, 0
  br i1 %.not11, label %.loopexit, label %20

.loopexit:                                        ; preds = %internal_RSTRUCT_GET.exit14, %20, %internal_RSTRUCT_LEN.exit, %3
  %.0 = phi i64 [ 20, %3 ], [ 20, %internal_RSTRUCT_LEN.exit ], [ 0, %internal_RSTRUCT_GET.exit14 ], [ 20, %20 ]
  ret i64 %.0
}